
bootloader.elf:     file format elf32-littlearm

Sections:
Idx Name          Size      VMA       LMA       File off  Algn
  0 .isr_vector   0000010c  08000000  08000000  00010000  2**0
                  CONTENTS, ALLOC, LOAD, READONLY, DATA
  1 .text         000006d0  0800010c  0800010c  0001010c  2**2
                  CONTENTS, ALLOC, LOAD, READONLY, CODE
  2 .rodata       00000000  080007dc  080007dc  00020008  2**0
                  CONTENTS, ALLOC, LOAD, DATA
  3 .ARM.extab    00000000  080007dc  080007dc  00020008  2**0
                  CONTENTS
  4 .ARM          00000000  080007dc  080007dc  00020008  2**0
                  CONTENTS
  5 .preinit_array 00000000  080007dc  080007dc  00020008  2**0
                  CONTENTS, ALLOC, LOAD, DATA
  6 .init_array   00000004  080007dc  080007dc  000107dc  2**2
                  CONTENTS, ALLOC, LOAD, DATA
  7 .fini_array   00000004  080007e0  080007e0  000107e0  2**2
                  CONTENTS, ALLOC, LOAD, DATA
  8 .data         00000008  20000000  080007e4  00020000  2**2
                  CONTENTS, ALLOC, LOAD, DATA
  9 .bss          00000230  20000008  080007ec  00020008  2**2
                  ALLOC
 10 ._user_heap_stack 00000600  20000238  080007ec  00020238  2**0
                  ALLOC
 11 .ARM.attributes 00000029  00000000  00000000  00020008  2**0
                  CONTENTS, READONLY
 12 .comment      00000043  00000000  00000000  00020031  2**0
                  CONTENTS, READONLY
 13 .debug_frame  0000002c  00000000  00000000  00020074  2**2
                  CONTENTS, READONLY, DEBUGGING, OCTETS

Disassembly of section .text:

0800010c <__do_global_dtors_aux>:
 800010c:	b510      	push	{r4, lr}
 800010e:	4c05      	ldr	r4, [pc, #20]	; (8000124 <__do_global_dtors_aux+0x18>)
 8000110:	7823      	ldrb	r3, [r4, #0]
 8000112:	b933      	cbnz	r3, 8000122 <__do_global_dtors_aux+0x16>
 8000114:	4b04      	ldr	r3, [pc, #16]	; (8000128 <__do_global_dtors_aux+0x1c>)
 8000116:	b113      	cbz	r3, 800011e <__do_global_dtors_aux+0x12>
 8000118:	4804      	ldr	r0, [pc, #16]	; (800012c <__do_global_dtors_aux+0x20>)
 800011a:	f3af 8000 	nop.w
 800011e:	2301      	movs	r3, #1
 8000120:	7023      	strb	r3, [r4, #0]
 8000122:	bd10      	pop	{r4, pc}
 8000124:	20000008 	.word	0x20000008
 8000128:	00000000 	.word	0x00000000
 800012c:	080007c4 	.word	0x080007c4

08000130 <frame_dummy>:
 8000130:	b508      	push	{r3, lr}
 8000132:	4b03      	ldr	r3, [pc, #12]	; (8000140 <frame_dummy+0x10>)
 8000134:	b11b      	cbz	r3, 800013e <frame_dummy+0xe>
 8000136:	4903      	ldr	r1, [pc, #12]	; (8000144 <frame_dummy+0x14>)
 8000138:	4803      	ldr	r0, [pc, #12]	; (8000148 <frame_dummy+0x18>)
 800013a:	f3af 8000 	nop.w
 800013e:	bd08      	pop	{r3, pc}
 8000140:	00000000 	.word	0x00000000
 8000144:	2000000c 	.word	0x2000000c
 8000148:	080007c4 	.word	0x080007c4

0800014c <SystemClock_Config>:
 800014c:	4a23      	ldr	r2, [pc, #140]	; (80001dc <SystemClock_Config+0x90>)
 800014e:	b508      	push	{r3, lr}
 8000150:	6813      	ldr	r3, [r2, #0]
 8000152:	f023 0307 	bic.w	r3, r3, #7
 8000156:	f043 0301 	orr.w	r3, r3, #1
 800015a:	6013      	str	r3, [r2, #0]
 800015c:	6813      	ldr	r3, [r2, #0]
 800015e:	f003 0307 	and.w	r3, r3, #7
 8000162:	2b01      	cmp	r3, #1
 8000164:	d1fa      	bne.n	800015c <SystemClock_Config+0x10>
 8000166:	4b1e      	ldr	r3, [pc, #120]	; (80001e0 <SystemClock_Config+0x94>)
 8000168:	681a      	ldr	r2, [r3, #0]
 800016a:	f022 02f8 	bic.w	r2, r2, #248	; 0xf8
 800016e:	f042 0280 	orr.w	r2, r2, #128	; 0x80
 8000172:	601a      	str	r2, [r3, #0]
 8000174:	681a      	ldr	r2, [r3, #0]
 8000176:	f042 0201 	orr.w	r2, r2, #1
 800017a:	601a      	str	r2, [r3, #0]
 800017c:	681a      	ldr	r2, [r3, #0]
 800017e:	0791      	lsls	r1, r2, #30
 8000180:	d5fc      	bpl.n	800017c <SystemClock_Config+0x30>
 8000182:	685a      	ldr	r2, [r3, #4]
 8000184:	f422 127c 	bic.w	r2, r2, #4128768	; 0x3f0000
 8000188:	f442 12e0 	orr.w	r2, r2, #1835008	; 0x1c0000
 800018c:	605a      	str	r2, [r3, #4]
 800018e:	681a      	ldr	r2, [r3, #0]
 8000190:	f042 7280 	orr.w	r2, r2, #16777216	; 0x1000000
 8000194:	601a      	str	r2, [r3, #0]
 8000196:	681a      	ldr	r2, [r3, #0]
 8000198:	0192      	lsls	r2, r2, #6
 800019a:	d5fc      	bpl.n	8000196 <SystemClock_Config+0x4a>
 800019c:	685a      	ldr	r2, [r3, #4]
 800019e:	f022 02f0 	bic.w	r2, r2, #240	; 0xf0
 80001a2:	605a      	str	r2, [r3, #4]
 80001a4:	685a      	ldr	r2, [r3, #4]
 80001a6:	f422 62e0 	bic.w	r2, r2, #1792	; 0x700
 80001aa:	605a      	str	r2, [r3, #4]
 80001ac:	685a      	ldr	r2, [r3, #4]
 80001ae:	f422 5260 	bic.w	r2, r2, #14336	; 0x3800
 80001b2:	605a      	str	r2, [r3, #4]
 80001b4:	685a      	ldr	r2, [r3, #4]
 80001b6:	f022 0203 	bic.w	r2, r2, #3
 80001ba:	f042 0202 	orr.w	r2, r2, #2
 80001be:	605a      	str	r2, [r3, #4]
 80001c0:	685a      	ldr	r2, [r3, #4]
 80001c2:	f002 020c 	and.w	r2, r2, #12
 80001c6:	2a08      	cmp	r2, #8
 80001c8:	d1fa      	bne.n	80001c0 <SystemClock_Config+0x74>
 80001ca:	4806      	ldr	r0, [pc, #24]	; (80001e4 <SystemClock_Config+0x98>)
 80001cc:	f000 faaf 	bl	800072e <LL_Init1msTick>
 80001d0:	e8bd 4008 	ldmia.w	sp!, {r3, lr}
 80001d4:	4803      	ldr	r0, [pc, #12]	; (80001e4 <SystemClock_Config+0x98>)
 80001d6:	f000 bacb 	b.w	8000770 <LL_SetSystemCoreClock>
 80001da:	bf00      	nop
 80001dc:	40022000 	.word	0x40022000
 80001e0:	40021000 	.word	0x40021000
 80001e4:	02255100 	.word	0x02255100

080001e8 <runApp>:
 80001e8:	f04f 6100 	mov.w	r1, #134217728	; 0x8000000
 80001ec:	4b18      	ldr	r3, [pc, #96]	; (8000250 <runApp+0x68>)
 80001ee:	f8d1 2800 	ldr.w	r2, [r1, #2048]	; 0x800
 80001f2:	4013      	ands	r3, r2
 80001f4:	f1b3 5f00 	cmp.w	r3, #536870912	; 0x20000000
 80001f8:	d129      	bne.n	800024e <runApp+0x66>
 80001fa:	f8d1 0804 	ldr.w	r0, [r1, #2052]	; 0x804
 80001fe:	b672      	cpsid	i
 8000200:	f103 5300 	add.w	r3, r3, #536870912	; 0x20000000
 8000204:	f503 3304 	add.w	r3, r3, #135168	; 0x21000
 8000208:	691a      	ldr	r2, [r3, #16]
 800020a:	f442 22c0 	orr.w	r2, r2, #393216	; 0x60000
 800020e:	611a      	str	r2, [r3, #16]
 8000210:	691a      	ldr	r2, [r3, #16]
 8000212:	f422 22c0 	bic.w	r2, r2, #393216	; 0x60000
 8000216:	611a      	str	r2, [r3, #16]
 8000218:	68da      	ldr	r2, [r3, #12]
 800021a:	f442 4280 	orr.w	r2, r2, #16384	; 0x4000
 800021e:	f042 020c 	orr.w	r2, r2, #12
 8000222:	60da      	str	r2, [r3, #12]
 8000224:	68da      	ldr	r2, [r3, #12]
 8000226:	f422 4280 	bic.w	r2, r2, #16384	; 0x4000
 800022a:	f022 020c 	bic.w	r2, r2, #12
 800022e:	60da      	str	r2, [r3, #12]
 8000230:	f04f 23e0 	mov.w	r3, #3758153728	; 0xe000e000
 8000234:	2200      	movs	r2, #0
 8000236:	611a      	str	r2, [r3, #16]
 8000238:	615a      	str	r2, [r3, #20]
 800023a:	619a      	str	r2, [r3, #24]
 800023c:	f04f 2208 	mov.w	r2, #134219776	; 0x8000800
 8000240:	f8c3 2d08 	str.w	r2, [r3, #3336]	; 0xd08
 8000244:	f8d1 3800 	ldr.w	r3, [r1, #2048]	; 0x800
 8000248:	f383 8808 	msr	MSP, r3
 800024c:	4700      	bx	r0
 800024e:	4770      	bx	lr
 8000250:	2ffe0000 	.word	0x2ffe0000

08000254 <getch>:
 8000254:	4b04      	ldr	r3, [pc, #16]	; (8000268 <getch+0x14>)
 8000256:	681a      	ldr	r2, [r3, #0]
 8000258:	6813      	ldr	r3, [r2, #0]
 800025a:	069b      	lsls	r3, r3, #26
 800025c:	d5fc      	bpl.n	8000258 <getch+0x4>
 800025e:	4b03      	ldr	r3, [pc, #12]	; (800026c <getch+0x18>)
 8000260:	681b      	ldr	r3, [r3, #0]
 8000262:	6818      	ldr	r0, [r3, #0]
 8000264:	b2c0      	uxtb	r0, r0
 8000266:	4770      	bx	lr
 8000268:	20000228 	.word	0x20000228
 800026c:	20000224 	.word	0x20000224

08000270 <putch>:
 8000270:	4b04      	ldr	r3, [pc, #16]	; (8000284 <putch+0x14>)
 8000272:	681a      	ldr	r2, [r3, #0]
 8000274:	6813      	ldr	r3, [r2, #0]
 8000276:	061b      	lsls	r3, r3, #24
 8000278:	d5fc      	bpl.n	8000274 <putch+0x4>
 800027a:	4b03      	ldr	r3, [pc, #12]	; (8000288 <putch+0x18>)
 800027c:	681b      	ldr	r3, [r3, #0]
 800027e:	6018      	str	r0, [r3, #0]
 8000280:	4770      	bx	lr
 8000282:	bf00      	nop
 8000284:	20000234 	.word	0x20000234
 8000288:	20000230 	.word	0x20000230

0800028c <verifySpace>:
 800028c:	b508      	push	{r3, lr}
 800028e:	f7ff ffe1 	bl	8000254 <getch>
 8000292:	2820      	cmp	r0, #32
 8000294:	d104      	bne.n	80002a0 <verifySpace+0x14>
 8000296:	2014      	movs	r0, #20
 8000298:	f7ff ffea 	bl	8000270 <putch>
 800029c:	2000      	movs	r0, #0
 800029e:	bd08      	pop	{r3, pc}
 80002a0:	2001      	movs	r0, #1
 80002a2:	e7fc      	b.n	800029e <verifySpace+0x12>

080002a4 <bgetNch>:
 80002a4:	4601      	mov	r1, r0
 80002a6:	b508      	push	{r3, lr}
 80002a8:	3901      	subs	r1, #1
 80002aa:	f7ff ffd3 	bl	8000254 <getch>
 80002ae:	f011 01ff 	ands.w	r1, r1, #255	; 0xff
 80002b2:	d1f9      	bne.n	80002a8 <bgetNch+0x4>
 80002b4:	bd08      	pop	{r3, pc}
	...

080002b8 <system_init>:
 80002b8:	491c      	ldr	r1, [pc, #112]	; (800032c <system_init+0x74>)
 80002ba:	4a1d      	ldr	r2, [pc, #116]	; (8000330 <system_init+0x78>)
 80002bc:	684b      	ldr	r3, [r1, #4]
 80002be:	f023 03f0 	bic.w	r3, r3, #240	; 0xf0
 80002c2:	f043 0390 	orr.w	r3, r3, #144	; 0x90
 80002c6:	604b      	str	r3, [r1, #4]
 80002c8:	6853      	ldr	r3, [r2, #4]
 80002ca:	f423 6370 	bic.w	r3, r3, #3840	; 0xf00
 80002ce:	f443 6310 	orr.w	r3, r3, #2304	; 0x900
 80002d2:	6053      	str	r3, [r2, #4]
 80002d4:	6813      	ldr	r3, [r2, #0]
 80002d6:	f423 4370 	bic.w	r3, r3, #61440	; 0xf000
 80002da:	f023 03f0 	bic.w	r3, r3, #240	; 0xf0
 80002de:	f443 5300 	orr.w	r3, r3, #8192	; 0x2000
 80002e2:	f043 0320 	orr.w	r3, r3, #32
 80002e6:	6013      	str	r3, [r2, #0]
 80002e8:	2308      	movs	r3, #8
 80002ea:	6153      	str	r3, [r2, #20]
 80002ec:	2302      	movs	r3, #2
 80002ee:	6113      	str	r3, [r2, #16]
 80002f0:	23f1      	movs	r3, #241	; 0xf1
 80002f2:	610b      	str	r3, [r1, #16]
 80002f4:	680a      	ldr	r2, [r1, #0]
 80002f6:	4b0f      	ldr	r3, [pc, #60]	; (8000334 <system_init+0x7c>)
 80002f8:	f402 427f 	and.w	r2, r2, #65280	; 0xff00
 80002fc:	4313      	orrs	r3, r2
 80002fe:	600b      	str	r3, [r1, #0]
 8000300:	f242 020c 	movw	r2, #8204	; 0x200c
 8000304:	f240 2171 	movw	r1, #625	; 0x271
 8000308:	4b0b      	ldr	r3, [pc, #44]	; (8000338 <system_init+0x80>)
 800030a:	6099      	str	r1, [r3, #8]
 800030c:	60da      	str	r2, [r3, #12]
 800030e:	f5a3 4374 	sub.w	r3, r3, #62464	; 0xf400
 8000312:	6099      	str	r1, [r3, #8]
 8000314:	60da      	str	r2, [r3, #12]
 8000316:	f8c3 1408 	str.w	r1, [r3, #1032]	; 0x408
 800031a:	f8c3 240c 	str.w	r2, [r3, #1036]	; 0x40c
 800031e:	2200      	movs	r2, #0
 8000320:	f8c3 2410 	str.w	r2, [r3, #1040]	; 0x410
 8000324:	f8c3 2414 	str.w	r2, [r3, #1044]	; 0x414
 8000328:	4770      	bx	lr
 800032a:	bf00      	nop
 800032c:	40010800 	.word	0x40010800
 8000330:	40010c00 	.word	0x40010c00
 8000334:	88880028 	.word	0x88880028
 8000338:	40013800 	.word	0x40013800

0800033c <main>:
 800033c:	f244 020d 	movw	r2, #16397	; 0x400d
 8000340:	e92d 4ff0 	stmdb	sp!, {r4, r5, r6, r7, r8, r9, sl, fp, lr}
 8000344:	4c9e      	ldr	r4, [pc, #632]	; (80005c0 <main+0x284>)
 8000346:	b085      	sub	sp, #20
 8000348:	69a3      	ldr	r3, [r4, #24]
 800034a:	499e      	ldr	r1, [pc, #632]	; (80005c4 <main+0x288>)
 800034c:	4313      	orrs	r3, r2
 800034e:	61a3      	str	r3, [r4, #24]
 8000350:	69a3      	ldr	r3, [r4, #24]
 8000352:	f04f 0900 	mov.w	r9, #0
 8000356:	4013      	ands	r3, r2
 8000358:	9303      	str	r3, [sp, #12]
 800035a:	9b03      	ldr	r3, [sp, #12]
 800035c:	4a9a      	ldr	r2, [pc, #616]	; (80005c8 <main+0x28c>)
 800035e:	69e3      	ldr	r3, [r4, #28]
 8000360:	f8df b268 	ldr.w	fp, [pc, #616]	; 80005cc <main+0x290>
 8000364:	4313      	orrs	r3, r2
 8000366:	61e3      	str	r3, [r4, #28]
 8000368:	69e3      	ldr	r3, [r4, #28]
 800036a:	4013      	ands	r3, r2
 800036c:	9302      	str	r3, [sp, #8]
 800036e:	9b02      	ldr	r3, [sp, #8]
 8000370:	68ca      	ldr	r2, [r1, #12]
 8000372:	4b97      	ldr	r3, [pc, #604]	; (80005d0 <main+0x294>)
 8000374:	f422 62e0 	bic.w	r2, r2, #1792	; 0x700
 8000378:	0412      	lsls	r2, r2, #16
 800037a:	0c12      	lsrs	r2, r2, #16
 800037c:	4313      	orrs	r3, r2
 800037e:	60cb      	str	r3, [r1, #12]
 8000380:	68cb      	ldr	r3, [r1, #12]
 8000382:	f3c3 2302 	ubfx	r3, r3, #8, #3
 8000386:	f1c3 0007 	rsb	r0, r3, #7
 800038a:	1d1a      	adds	r2, r3, #4
 800038c:	2804      	cmp	r0, #4
 800038e:	bf28      	it	cs
 8000390:	2004      	movcs	r0, #4
 8000392:	2a06      	cmp	r2, #6
 8000394:	bf88      	it	hi
 8000396:	1eda      	subhi	r2, r3, #3
 8000398:	f04f 33ff 	mov.w	r3, #4294967295	; 0xffffffff
 800039c:	fa03 f300 	lsl.w	r3, r3, r0
 80003a0:	bf98      	it	ls
 80003a2:	464a      	movls	r2, r9
 80003a4:	43db      	mvns	r3, r3
 80003a6:	4093      	lsls	r3, r2
 80003a8:	011b      	lsls	r3, r3, #4
 80003aa:	b2db      	uxtb	r3, r3
 80003ac:	f881 3023 	strb.w	r3, [r1, #35]	; 0x23
 80003b0:	f7ff fecc 	bl	800014c <SystemClock_Config>
 80003b4:	f7ff ff80 	bl	80002b8 <system_init>
 80003b8:	4b86      	ldr	r3, [pc, #536]	; (80005d4 <main+0x298>)
 80003ba:	4a87      	ldr	r2, [pc, #540]	; (80005d8 <main+0x29c>)
 80003bc:	f8cb 3000 	str.w	r3, [fp]
 80003c0:	3304      	adds	r3, #4
 80003c2:	6013      	str	r3, [r2, #0]
 80003c4:	4a85      	ldr	r2, [pc, #532]	; (80005dc <main+0x2a0>)
 80003c6:	f503 737f 	add.w	r3, r3, #1020	; 0x3fc
 80003ca:	6013      	str	r3, [r2, #0]
 80003cc:	4a84      	ldr	r2, [pc, #528]	; (80005e0 <main+0x2a4>)
 80003ce:	3304      	adds	r3, #4
 80003d0:	6013      	str	r3, [r2, #0]
 80003d2:	f000 f957 	bl	8000684 <LL_Flash_Unlock>
 80003d6:	6a63      	ldr	r3, [r4, #36]	; 0x24
 80003d8:	00dd      	lsls	r5, r3, #3
 80003da:	d40a      	bmi.n	80003f2 <main+0xb6>
 80003dc:	2096      	movs	r0, #150	; 0x96
 80003de:	f000 f9b3 	bl	8000748 <LL_mDelay>
 80003e2:	4b80      	ldr	r3, [pc, #512]	; (80005e4 <main+0x2a8>)
 80003e4:	689b      	ldr	r3, [r3, #8]
 80003e6:	f003 03f1 	and.w	r3, r3, #241	; 0xf1
 80003ea:	2bf0      	cmp	r3, #240	; 0xf0
 80003ec:	d001      	beq.n	80003f2 <main+0xb6>
 80003ee:	f7ff fefb 	bl	80001e8 <runApp>
 80003f2:	2700      	movs	r7, #0
 80003f4:	6a63      	ldr	r3, [r4, #36]	; 0x24
 80003f6:	46b8      	mov	r8, r7
 80003f8:	f043 7380 	orr.w	r3, r3, #16777216	; 0x1000000
 80003fc:	6263      	str	r3, [r4, #36]	; 0x24
 80003fe:	2401      	movs	r4, #1
 8000400:	463d      	mov	r5, r7
 8000402:	4b79      	ldr	r3, [pc, #484]	; (80005e8 <main+0x2ac>)
 8000404:	f8df a1e4 	ldr.w	sl, [pc, #484]	; 80005ec <main+0x2b0>
 8000408:	701c      	strb	r4, [r3, #0]
 800040a:	bb04      	cbnz	r4, 800044e <main+0x112>
 800040c:	f1b9 0f00 	cmp.w	r9, #0
 8000410:	d009      	beq.n	8000426 <main+0xea>
 8000412:	4a71      	ldr	r2, [pc, #452]	; (80005d8 <main+0x29c>)
 8000414:	4b76      	ldr	r3, [pc, #472]	; (80005f0 <main+0x2b4>)
 8000416:	f8cb a000 	str.w	sl, [fp]
 800041a:	6013      	str	r3, [r2, #0]
 800041c:	4a6f      	ldr	r2, [pc, #444]	; (80005dc <main+0x2a0>)
 800041e:	f8c2 a000 	str.w	sl, [r2]
 8000422:	4a6f      	ldr	r2, [pc, #444]	; (80005e0 <main+0x2a4>)
 8000424:	6013      	str	r3, [r2, #0]
 8000426:	f7ff ff15 	bl	8000254 <getch>
 800042a:	2856      	cmp	r0, #86	; 0x56
 800042c:	4605      	mov	r5, r0
 800042e:	f000 809c 	beq.w	800056a <main+0x22e>
 8000432:	d830      	bhi.n	8000496 <main+0x15a>
 8000434:	2845      	cmp	r0, #69	; 0x45
 8000436:	f000 8096 	beq.w	8000566 <main+0x22a>
 800043a:	d821      	bhi.n	8000480 <main+0x144>
 800043c:	2841      	cmp	r0, #65	; 0x41
 800043e:	d076      	beq.n	800052e <main+0x1f2>
 8000440:	2842      	cmp	r0, #66	; 0x42
 8000442:	f000 808c 	beq.w	800055e <main+0x222>
 8000446:	f7ff ff21 	bl	800028c <verifySpace>
 800044a:	4604      	mov	r4, r0
 800044c:	e07b      	b.n	8000546 <main+0x20a>
 800044e:	4b61      	ldr	r3, [pc, #388]	; (80005d4 <main+0x298>)
 8000450:	681a      	ldr	r2, [r3, #0]
 8000452:	0690      	lsls	r0, r2, #26
 8000454:	bf48      	it	mi
 8000456:	685d      	ldrmi	r5, [r3, #4]
 8000458:	f8da 3000 	ldr.w	r3, [sl]
 800045c:	bf44      	itt	mi
 800045e:	b2ed      	uxtbmi	r5, r5
 8000460:	f04f 0900 	movmi.w	r9, #0
 8000464:	0699      	lsls	r1, r3, #26
 8000466:	bf41      	itttt	mi
 8000468:	4b5a      	ldrmi	r3, [pc, #360]	; (80005d4 <main+0x298>)
 800046a:	f04f 0901 	movmi.w	r9, #1
 800046e:	685d      	ldrmi	r5, [r3, #4]
 8000470:	b2ed      	uxtbmi	r5, r5
 8000472:	f1b8 0f30 	cmp.w	r8, #48	; 0x30
 8000476:	d101      	bne.n	800047c <main+0x140>
 8000478:	2d20      	cmp	r5, #32
 800047a:	d0c7      	beq.n	800040c <main+0xd0>
 800047c:	46a8      	mov	r8, r5
 800047e:	e7c4      	b.n	800040a <main+0xce>
 8000480:	2855      	cmp	r0, #85	; 0x55
 8000482:	d1e0      	bne.n	8000446 <main+0x10a>
 8000484:	f7ff fee6 	bl	8000254 <getch>
 8000488:	4607      	mov	r7, r0
 800048a:	f7ff fee3 	bl	8000254 <getch>
 800048e:	ea47 2700 	orr.w	r7, r7, r0, lsl #8
 8000492:	007f      	lsls	r7, r7, #1
 8000494:	e7d7      	b.n	8000446 <main+0x10a>
 8000496:	2874      	cmp	r0, #116	; 0x74
 8000498:	d06f      	beq.n	800057a <main+0x23e>
 800049a:	2875      	cmp	r0, #117	; 0x75
 800049c:	f000 8085 	beq.w	80005aa <main+0x26e>
 80004a0:	2864      	cmp	r0, #100	; 0x64
 80004a2:	d1d0      	bne.n	8000446 <main+0x10a>
 80004a4:	f7ff fed6 	bl	8000254 <getch>
 80004a8:	0206      	lsls	r6, r0, #8
 80004aa:	f7ff fed3 	bl	8000254 <getch>
 80004ae:	b2b6      	uxth	r6, r6
 80004b0:	4306      	orrs	r6, r0
 80004b2:	f7ff fecf 	bl	8000254 <getch>
 80004b6:	4b4f      	ldr	r3, [pc, #316]	; (80005f4 <main+0x2b8>)
 80004b8:	b2b6      	uxth	r6, r6
 80004ba:	4634      	mov	r4, r6
 80004bc:	4619      	mov	r1, r3
 80004be:	9300      	str	r3, [sp, #0]
 80004c0:	f7ff fec8 	bl	8000254 <getch>
 80004c4:	3c01      	subs	r4, #1
 80004c6:	9b00      	ldr	r3, [sp, #0]
 80004c8:	b2a4      	uxth	r4, r4
 80004ca:	f803 0b01 	strb.w	r0, [r3], #1
 80004ce:	2c00      	cmp	r4, #0
 80004d0:	d1f5      	bne.n	80004be <main+0x182>
 80004d2:	07f2      	lsls	r2, r6, #31
 80004d4:	bf48      	it	mi
 80004d6:	22ff      	movmi	r2, #255	; 0xff
 80004d8:	f106 33ff 	add.w	r3, r6, #4294967295	; 0xffffffff
 80004dc:	b29b      	uxth	r3, r3
 80004de:	f103 0301 	add.w	r3, r3, #1
 80004e2:	bf48      	it	mi
 80004e4:	54ca      	strbmi	r2, [r1, r3]
 80004e6:	f7ff fed1 	bl	800028c <verifySpace>
 80004ea:	f5a7 6300 	sub.w	r3, r7, #2048	; 0x800
 80004ee:	f5b3 3ffc 	cmp.w	r3, #129024	; 0x1f800
 80004f2:	4604      	mov	r4, r0
 80004f4:	d227      	bcs.n	8000546 <main+0x20a>
 80004f6:	f107 6300 	add.w	r3, r7, #134217728	; 0x8000000
 80004fa:	f3c3 0209 	ubfx	r2, r3, #0, #10
 80004fe:	b922      	cbnz	r2, 800050a <main+0x1ce>
 8000500:	4618      	mov	r0, r3
 8000502:	9300      	str	r3, [sp, #0]
 8000504:	f000 f8ce 	bl	80006a4 <LL_Flash_PageErase>
 8000508:	9b00      	ldr	r3, [sp, #0]
 800050a:	3601      	adds	r6, #1
 800050c:	4a39      	ldr	r2, [pc, #228]	; (80005f4 <main+0x2b8>)
 800050e:	f3c6 064e 	ubfx	r6, r6, #1, #15
 8000512:	b1c6      	cbz	r6, 8000546 <main+0x20a>
 8000514:	f832 1b02 	ldrh.w	r1, [r2], #2
 8000518:	4618      	mov	r0, r3
 800051a:	9201      	str	r2, [sp, #4]
 800051c:	9300      	str	r3, [sp, #0]
 800051e:	f000 f895 	bl	800064c <LL_FLASH_Program_TwoBtye>
 8000522:	9b00      	ldr	r3, [sp, #0]
 8000524:	3e01      	subs	r6, #1
 8000526:	9a01      	ldr	r2, [sp, #4]
 8000528:	3302      	adds	r3, #2
 800052a:	b2b6      	uxth	r6, r6
 800052c:	e7f1      	b.n	8000512 <main+0x1d6>
 800052e:	f7ff fe91 	bl	8000254 <getch>
 8000532:	4680      	mov	r8, r0
 8000534:	f7ff feaa 	bl	800028c <verifySpace>
 8000538:	f1b8 0f82 	cmp.w	r8, #130	; 0x82
 800053c:	4604      	mov	r4, r0
 800053e:	d108      	bne.n	8000552 <main+0x216>
 8000540:	2005      	movs	r0, #5
 8000542:	f7ff fe95 	bl	8000270 <putch>
 8000546:	2c00      	cmp	r4, #0
 8000548:	d181      	bne.n	800044e <main+0x112>
 800054a:	2010      	movs	r0, #16
 800054c:	f7ff fe90 	bl	8000270 <putch>
 8000550:	e75c      	b.n	800040c <main+0xd0>
 8000552:	f1b8 0f81 	cmp.w	r8, #129	; 0x81
 8000556:	bf0c      	ite	eq
 8000558:	2004      	moveq	r0, #4
 800055a:	2003      	movne	r0, #3
 800055c:	e7f1      	b.n	8000542 <main+0x206>
 800055e:	2014      	movs	r0, #20
 8000560:	f7ff fea0 	bl	80002a4 <bgetNch>
 8000564:	e76f      	b.n	8000446 <main+0x10a>
 8000566:	2005      	movs	r0, #5
 8000568:	e7fa      	b.n	8000560 <main+0x224>
 800056a:	2004      	movs	r0, #4
 800056c:	f7ff fe9a 	bl	80002a4 <bgetNch>
 8000570:	f7ff fe8c 	bl	800028c <verifySpace>
 8000574:	4604      	mov	r4, r0
 8000576:	2000      	movs	r0, #0
 8000578:	e7e3      	b.n	8000542 <main+0x206>
 800057a:	f7ff fe6b 	bl	8000254 <getch>
 800057e:	0201      	lsls	r1, r0, #8
 8000580:	f7ff fe68 	bl	8000254 <getch>
 8000584:	b289      	uxth	r1, r1
 8000586:	4301      	orrs	r1, r0
 8000588:	f7ff fe64 	bl	8000254 <getch>
 800058c:	f7ff fe7e 	bl	800028c <verifySpace>
 8000590:	4604      	mov	r4, r0
 8000592:	f107 6600 	add.w	r6, r7, #134217728	; 0x8000000
 8000596:	b289      	uxth	r1, r1
 8000598:	3901      	subs	r1, #1
 800059a:	7830      	ldrb	r0, [r6, #0]
 800059c:	b289      	uxth	r1, r1
 800059e:	f7ff fe67 	bl	8000270 <putch>
 80005a2:	3601      	adds	r6, #1
 80005a4:	2900      	cmp	r1, #0
 80005a6:	d1f7      	bne.n	8000598 <main+0x25c>
 80005a8:	e7cd      	b.n	8000546 <main+0x20a>
 80005aa:	f7ff fe6f 	bl	800028c <verifySpace>
 80005ae:	4604      	mov	r4, r0
 80005b0:	201e      	movs	r0, #30
 80005b2:	f7ff fe5d 	bl	8000270 <putch>
 80005b6:	2055      	movs	r0, #85	; 0x55
 80005b8:	f7ff fe5a 	bl	8000270 <putch>
 80005bc:	20aa      	movs	r0, #170	; 0xaa
 80005be:	e7c0      	b.n	8000542 <main+0x206>
 80005c0:	40021000 	.word	0x40021000
 80005c4:	e000ed00 	.word	0xe000ed00
 80005c8:	10060000 	.word	0x10060000
 80005cc:	20000228 	.word	0x20000228
 80005d0:	05fa0300 	.word	0x05fa0300
 80005d4:	40004400 	.word	0x40004400
 80005d8:	20000224 	.word	0x20000224
 80005dc:	20000234 	.word	0x20000234
 80005e0:	20000230 	.word	0x20000230
 80005e4:	40010800 	.word	0x40010800
 80005e8:	2000022c 	.word	0x2000022c
 80005ec:	40013800 	.word	0x40013800
 80005f0:	40013804 	.word	0x40013804
 80005f4:	20000024 	.word	0x20000024

080005f8 <NMI_Handler>:
 80005f8:	e7fe      	b.n	80005f8 <NMI_Handler>

080005fa <HardFault_Handler>:
 80005fa:	e7fe      	b.n	80005fa <HardFault_Handler>

080005fc <MemManage_Handler>:
 80005fc:	e7fe      	b.n	80005fc <MemManage_Handler>

080005fe <BusFault_Handler>:
 80005fe:	e7fe      	b.n	80005fe <BusFault_Handler>

08000600 <UsageFault_Handler>:
 8000600:	e7fe      	b.n	8000600 <UsageFault_Handler>

08000602 <SVC_Handler>:
 8000602:	4770      	bx	lr

08000604 <DebugMon_Handler>:
 8000604:	4770      	bx	lr

08000606 <PendSV_Handler>:
 8000606:	4770      	bx	lr

08000608 <SysTick_Handler>:
 8000608:	4b08      	ldr	r3, [pc, #32]	; (800062c <SysTick_Handler+0x24>)
 800060a:	781b      	ldrb	r3, [r3, #0]
 800060c:	b163      	cbz	r3, 8000628 <SysTick_Handler+0x20>
 800060e:	4b08      	ldr	r3, [pc, #32]	; (8000630 <SysTick_Handler+0x28>)
 8000610:	781a      	ldrb	r2, [r3, #0]
 8000612:	b932      	cbnz	r2, 8000622 <SysTick_Handler+0x1a>
 8000614:	4907      	ldr	r1, [pc, #28]	; (8000634 <SysTick_Handler+0x2c>)
 8000616:	68ca      	ldr	r2, [r1, #12]
 8000618:	f082 0202 	eor.w	r2, r2, #2
 800061c:	60ca      	str	r2, [r1, #12]
 800061e:	2232      	movs	r2, #50	; 0x32
 8000620:	701a      	strb	r2, [r3, #0]
 8000622:	781a      	ldrb	r2, [r3, #0]
 8000624:	3a01      	subs	r2, #1
 8000626:	701a      	strb	r2, [r3, #0]
 8000628:	4770      	bx	lr
 800062a:	bf00      	nop
 800062c:	2000022c 	.word	0x2000022c
 8000630:	20000000 	.word	0x20000000
 8000634:	40010800 	.word	0x40010800

08000638 <LL_FLASH_Wait_for_Busy>:
 8000638:	4a03      	ldr	r2, [pc, #12]	; (8000648 <LL_FLASH_Wait_for_Busy+0x10>)
 800063a:	68d3      	ldr	r3, [r2, #12]
 800063c:	07db      	lsls	r3, r3, #31
 800063e:	d400      	bmi.n	8000642 <LL_FLASH_Wait_for_Busy+0xa>
 8000640:	4770      	bx	lr
 8000642:	bf00      	nop
 8000644:	e7f9      	b.n	800063a <LL_FLASH_Wait_for_Busy+0x2>
 8000646:	bf00      	nop
 8000648:	40022000 	.word	0x40022000

0800064c <LL_FLASH_Program_TwoBtye>:
 800064c:	b510      	push	{r4, lr}
 800064e:	4c0c      	ldr	r4, [pc, #48]	; (8000680 <LL_FLASH_Program_TwoBtye+0x34>)
 8000650:	f7ff fff2 	bl	8000638 <LL_FLASH_Wait_for_Busy>
 8000654:	6923      	ldr	r3, [r4, #16]
 8000656:	f043 0301 	orr.w	r3, r3, #1
 800065a:	6123      	str	r3, [r4, #16]
 800065c:	8001      	strh	r1, [r0, #0]
 800065e:	f7ff ffeb 	bl	8000638 <LL_FLASH_Wait_for_Busy>
 8000662:	68e3      	ldr	r3, [r4, #12]
 8000664:	069b      	lsls	r3, r3, #26
 8000666:	bf41      	itttt	mi
 8000668:	68e3      	ldrmi	r3, [r4, #12]
 800066a:	2000      	movmi	r0, #0
 800066c:	f043 0320 	orrmi.w	r3, r3, #32
 8000670:	60e3      	strmi	r3, [r4, #12]
 8000672:	bf49      	itett	mi
 8000674:	6923      	ldrmi	r3, [r4, #16]
 8000676:	2001      	movpl	r0, #1
 8000678:	f023 0301 	bicmi.w	r3, r3, #1
 800067c:	6123      	strmi	r3, [r4, #16]
 800067e:	bd10      	pop	{r4, pc}
 8000680:	40022000 	.word	0x40022000

08000684 <LL_Flash_Unlock>:
 8000684:	4b05      	ldr	r3, [pc, #20]	; (800069c <LL_Flash_Unlock+0x18>)
 8000686:	2000      	movs	r0, #0
 8000688:	691a      	ldr	r2, [r3, #16]
 800068a:	0612      	lsls	r2, r2, #24
 800068c:	bf41      	itttt	mi
 800068e:	4a04      	ldrmi	r2, [pc, #16]	; (80006a0 <LL_Flash_Unlock+0x1c>)
 8000690:	605a      	strmi	r2, [r3, #4]
 8000692:	f102 3288 	addmi.w	r2, r2, #2290649224	; 0x88888888
 8000696:	605a      	strmi	r2, [r3, #4]
 8000698:	4770      	bx	lr
 800069a:	bf00      	nop
 800069c:	40022000 	.word	0x40022000
 80006a0:	45670123 	.word	0x45670123

080006a4 <LL_Flash_PageErase>:
 80006a4:	490d      	ldr	r1, [pc, #52]	; (80006dc <LL_Flash_PageErase+0x38>)
 80006a6:	b508      	push	{r3, lr}
 80006a8:	690b      	ldr	r3, [r1, #16]
 80006aa:	f043 0302 	orr.w	r3, r3, #2
 80006ae:	610b      	str	r3, [r1, #16]
 80006b0:	6148      	str	r0, [r1, #20]
 80006b2:	690b      	ldr	r3, [r1, #16]
 80006b4:	f043 0340 	orr.w	r3, r3, #64	; 0x40
 80006b8:	610b      	str	r3, [r1, #16]
 80006ba:	f7ff ffbd 	bl	8000638 <LL_FLASH_Wait_for_Busy>
 80006be:	68cb      	ldr	r3, [r1, #12]
 80006c0:	069b      	lsls	r3, r3, #26
 80006c2:	bf41      	itttt	mi
 80006c4:	68cb      	ldrmi	r3, [r1, #12]
 80006c6:	2000      	movmi	r0, #0
 80006c8:	f043 0320 	orrmi.w	r3, r3, #32
 80006cc:	60cb      	strmi	r3, [r1, #12]
 80006ce:	bf49      	itett	mi
 80006d0:	690b      	ldrmi	r3, [r1, #16]
 80006d2:	2001      	movpl	r0, #1
 80006d4:	f023 0302 	bicmi.w	r3, r3, #2
 80006d8:	610b      	strmi	r3, [r1, #16]
 80006da:	bd08      	pop	{r3, pc}
 80006dc:	40022000 	.word	0x40022000

080006e0 <SystemInit>:
 80006e0:	4770      	bx	lr
	...

080006e4 <Reset_Handler>:
 80006e4:	f7ff fffc 	bl	80006e0 <SystemInit>
 80006e8:	480b      	ldr	r0, [pc, #44]	; (8000718 <LoopFillZerobss+0xe>)
 80006ea:	490c      	ldr	r1, [pc, #48]	; (800071c <LoopFillZerobss+0x12>)
 80006ec:	4a0c      	ldr	r2, [pc, #48]	; (8000720 <LoopFillZerobss+0x16>)
 80006ee:	2300      	movs	r3, #0
 80006f0:	e002      	b.n	80006f8 <LoopCopyDataInit>

080006f2 <CopyDataInit>:
 80006f2:	58d4      	ldr	r4, [r2, r3]
 80006f4:	50c4      	str	r4, [r0, r3]
 80006f6:	3304      	adds	r3, #4

080006f8 <LoopCopyDataInit>:
 80006f8:	18c4      	adds	r4, r0, r3
 80006fa:	428c      	cmp	r4, r1
 80006fc:	d3f9      	bcc.n	80006f2 <CopyDataInit>
 80006fe:	4a09      	ldr	r2, [pc, #36]	; (8000724 <LoopFillZerobss+0x1a>)
 8000700:	4c09      	ldr	r4, [pc, #36]	; (8000728 <LoopFillZerobss+0x1e>)
 8000702:	2300      	movs	r3, #0
 8000704:	e001      	b.n	800070a <LoopFillZerobss>

08000706 <FillZerobss>:
 8000706:	6013      	str	r3, [r2, #0]
 8000708:	3204      	adds	r2, #4

0800070a <LoopFillZerobss>:
 800070a:	42a2      	cmp	r2, r4
 800070c:	d3fb      	bcc.n	8000706 <FillZerobss>
 800070e:	f000 f835 	bl	800077c <__libc_init_array>
 8000712:	f7ff fe13 	bl	800033c <main>
 8000716:	4770      	bx	lr
 8000718:	20000000 	.word	0x20000000
 800071c:	20000008 	.word	0x20000008
 8000720:	080007e4 	.word	0x080007e4
 8000724:	20000008 	.word	0x20000008
 8000728:	20000238 	.word	0x20000238

0800072c <ADC1_2_IRQHandler>:
 800072c:	e7fe      	b.n	800072c <ADC1_2_IRQHandler>

0800072e <LL_Init1msTick>:
 800072e:	f44f 737a 	mov.w	r3, #1000	; 0x3e8
 8000732:	fbb0 f0f3 	udiv	r0, r0, r3
 8000736:	2200      	movs	r2, #0
 8000738:	f04f 23e0 	mov.w	r3, #3758153728	; 0xe000e000
 800073c:	3801      	subs	r0, #1
 800073e:	6158      	str	r0, [r3, #20]
 8000740:	619a      	str	r2, [r3, #24]
 8000742:	2205      	movs	r2, #5
 8000744:	611a      	str	r2, [r3, #16]
 8000746:	4770      	bx	lr

08000748 <LL_mDelay>:
 8000748:	f04f 23e0 	mov.w	r3, #3758153728	; 0xe000e000
 800074c:	691b      	ldr	r3, [r3, #16]
 800074e:	b082      	sub	sp, #8
 8000750:	9301      	str	r3, [sp, #4]
 8000752:	9b01      	ldr	r3, [sp, #4]
 8000754:	f04f 23e0 	mov.w	r3, #3758153728	; 0xe000e000
 8000758:	1c41      	adds	r1, r0, #1
 800075a:	bf18      	it	ne
 800075c:	3001      	addne	r0, #1
 800075e:	b908      	cbnz	r0, 8000764 <LL_mDelay+0x1c>
 8000760:	b002      	add	sp, #8
 8000762:	4770      	bx	lr
 8000764:	691a      	ldr	r2, [r3, #16]
 8000766:	03d2      	lsls	r2, r2, #15
 8000768:	bf48      	it	mi
 800076a:	f100 30ff 	addmi.w	r0, r0, #4294967295	; 0xffffffff
 800076e:	e7f6      	b.n	800075e <LL_mDelay+0x16>

08000770 <LL_SetSystemCoreClock>:
 8000770:	4b01      	ldr	r3, [pc, #4]	; (8000778 <LL_SetSystemCoreClock+0x8>)
 8000772:	6018      	str	r0, [r3, #0]
 8000774:	4770      	bx	lr
 8000776:	bf00      	nop
 8000778:	20000004 	.word	0x20000004

0800077c <__libc_init_array>:
 800077c:	b570      	push	{r4, r5, r6, lr}
 800077e:	2600      	movs	r6, #0
 8000780:	4d0c      	ldr	r5, [pc, #48]	; (80007b4 <__libc_init_array+0x38>)
 8000782:	4c0d      	ldr	r4, [pc, #52]	; (80007b8 <__libc_init_array+0x3c>)
 8000784:	1b64      	subs	r4, r4, r5
 8000786:	10a4      	asrs	r4, r4, #2
 8000788:	42a6      	cmp	r6, r4
 800078a:	d109      	bne.n	80007a0 <__libc_init_array+0x24>
 800078c:	f000 f81a 	bl	80007c4 <_init>
 8000790:	2600      	movs	r6, #0
 8000792:	4d0a      	ldr	r5, [pc, #40]	; (80007bc <__libc_init_array+0x40>)
 8000794:	4c0a      	ldr	r4, [pc, #40]	; (80007c0 <__libc_init_array+0x44>)
 8000796:	1b64      	subs	r4, r4, r5
 8000798:	10a4      	asrs	r4, r4, #2
 800079a:	42a6      	cmp	r6, r4
 800079c:	d105      	bne.n	80007aa <__libc_init_array+0x2e>
 800079e:	bd70      	pop	{r4, r5, r6, pc}
 80007a0:	f855 3b04 	ldr.w	r3, [r5], #4
 80007a4:	4798      	blx	r3
 80007a6:	3601      	adds	r6, #1
 80007a8:	e7ee      	b.n	8000788 <__libc_init_array+0xc>
 80007aa:	f855 3b04 	ldr.w	r3, [r5], #4
 80007ae:	4798      	blx	r3
 80007b0:	3601      	adds	r6, #1
 80007b2:	e7f2      	b.n	800079a <__libc_init_array+0x1e>
 80007b4:	080007dc 	.word	0x080007dc
 80007b8:	080007dc 	.word	0x080007dc
 80007bc:	080007dc 	.word	0x080007dc
 80007c0:	080007e0 	.word	0x080007e0

080007c4 <_init>:
 80007c4:	b5f8      	push	{r3, r4, r5, r6, r7, lr}
 80007c6:	bf00      	nop
 80007c8:	bcf8      	pop	{r3, r4, r5, r6, r7}
 80007ca:	bc08      	pop	{r3}
 80007cc:	469e      	mov	lr, r3
 80007ce:	4770      	bx	lr

080007d0 <_fini>:
 80007d0:	b5f8      	push	{r3, r4, r5, r6, r7, lr}
 80007d2:	bf00      	nop
 80007d4:	bcf8      	pop	{r3, r4, r5, r6, r7}
 80007d6:	bc08      	pop	{r3}
 80007d8:	469e      	mov	lr, r3
 80007da:	4770      	bx	lr
